; Function Attrs: mustprogress noreturn nounwind uwtable
define internal void @_ZNK12_GLOBAL__N_14Type10acleSuffixENSt7__cxx1112basic_stringIcSt11char_traitsIcESaIcEEE(ptr dead_on_unwind noalias nocapture readnone sret(%"class.std::__cxx11::basic_string") align 8 %0, ptr nocapture nonnull readnone align 8 %1, ptr nocapture readnone %2) unnamed_addr #5 align 2 {
  %4 = alloca %"class.llvm::Twine", align 8
  %5 = getelementptr inbounds nuw i8, ptr %4, i64 32
  %6 = getelementptr inbounds nuw i8, ptr %4, i64 33
  store i8 1, ptr %6, align 1
  store ptr @.str.3, ptr %4, align 8
  store i8 3, ptr %5, align 8
  call void @_ZN4llvm15PrintFatalErrorERKNS_5TwineE(ptr noundef nonnull align 8 dereferenceable(34) %4) #24
  unreachable
}